target datalayout = "e-m:e-p270:32:32-p271:32:32-p272:64:64-i64:64-i128:128-f80:128-n8:16:32:64-S128"
target triple = "x86_64-pc-linux-gnu"

%struct.zbee_zcl_packet = type { i8, i8, i8, i8, i16, i8, i8 }
%struct._packet_info = type { ptr, ptr, i32, i32, %struct.nstime_t, %struct.nstime_t, %struct.nstime_t, i8, ptr, ptr, ptr, ptr, %struct._address, %struct._address, %struct._address, %struct._address, %struct._address, %struct._address, i32, ptr, i8, [3 x i8], %struct.anon, i32, i32, i32, i32, ptr, i8, ptr, ptr, i16, i16, i32, i32, i16, i32, i32, ptr, ptr, ptr, i8, i8, i16, i16, i16, i32, i16, i16, ptr, ptr, ptr, ptr, ptr, i32, i32 }
%struct.nstime_t = type { i64, i32 }
%struct._address = type { i32, i32, ptr, ptr }
%struct.anon = type { i8, [3 x i8] }

@hf_zbee_zcl_elec_mes_srv_tx_cmd_id = internal global i32 0, align 4
@hf_zbee_zcl_elec_mes_srv_rx_cmd_id = internal global i32 0, align 4
@hf_zbee_zcl_elec_mes_attr_id = internal global i32 0, align 4
@hf_zbee_zcl_elec_mes_start_time = internal global i32 0, align 4
@hf_zbee_zcl_elec_mes_number_of_intervals = internal global i32 0, align 4
@hf_zbee_zcl_elec_mes_profile_count = internal global i32 0, align 4
@hf_zbee_zcl_elec_mes_profile_interval_period = internal global i32 0, align 4
@hf_zbee_zcl_elec_mes_max_number_of_intervals = internal global i32 0, align 4
@hf_zbee_zcl_elec_mes_status = internal global i32 0, align 4
@hf_zbee_zcl_elec_mes_number_of_intervals_delivered = internal global i32 0, align 4
@hf_zbee_zcl_elec_mes_intervals = internal global i32 0, align 4
@ett_zbee_zcl_elec_mes = internal global i32 0, align 4
@zbee_zcl_elec_mes_srv_tx_cmd_names = internal constant [3 x { i32, [4 x i8], ptr }] [{ i32, [4 x i8], ptr } { i32 0, [4 x i8] zeroinitializer, ptr @.str.136 }, { i32, [4 x i8], ptr } { i32 1, [4 x i8] zeroinitializer, ptr @.str.137 }, { i32, [4 x i8], ptr } zeroinitializer], align 16
@zbee_zcl_elec_mes_srv_rx_cmd_names = internal constant [3 x { i32, [4 x i8], ptr }] [{ i32, [4 x i8], ptr } { i32 0, [4 x i8] zeroinitializer, ptr @.str.139 }, { i32, [4 x i8], ptr } { i32 1, [4 x i8] zeroinitializer, ptr @.str.140 }, { i32, [4 x i8], ptr } zeroinitializer], align 16
@.str.285 = private unnamed_addr constant [12 x i8] c"%s, Seq: %u\00", align 1
@.str.286 = private unnamed_addr constant [16 x i8] c"Unknown Command\00", align 1
@.str.287 = private unnamed_addr constant [8 x i8] c"Payload\00", align 1

; Function Attrs: null_pointer_is_valid sspstrong uwtable
define internal void @dissect_zcl_elec_mes_get_measurement_profile_info_response(ptr noundef %0, ptr noundef %1, ptr noundef %2) #0 {
  %4 = alloca ptr, align 8
  %5 = alloca ptr, align 8
  %6 = alloca ptr, align 8
  %7 = alloca i32, align 4
  store ptr %0, ptr %4, align 8
  store ptr %1, ptr %5, align 8
  store ptr %2, ptr %6, align 8
  call void @llvm.lifetime.start.p0(i64 4, ptr %7) #6
  %8 = load ptr, ptr %5, align 8
  %9 = load i32, ptr @hf_zbee_zcl_elec_mes_start_time, align 4
  %10 = load ptr, ptr %4, align 8
  %11 = load ptr, ptr %6, align 8
  %12 = load i32, ptr %11, align 4
  %13 = call ptr @proto_tree_add_item(ptr noundef %8, i32 noundef %9, ptr noundef %10, i32 noundef %12, i32 noundef 4, i32 noundef -2147483598)
  %14 = load ptr, ptr %6, align 8
  %15 = load i32, ptr %14, align 4
  %16 = add i32 %15, 4
  store i32 %16, ptr %14, align 4
  %17 = load ptr, ptr %5, align 8
  %18 = load i32, ptr @hf_zbee_zcl_elec_mes_status, align 4
  %19 = load ptr, ptr %4, align 8
  %20 = load ptr, ptr %6, align 8
  %21 = load i32, ptr %20, align 4
  %22 = call ptr @proto_tree_add_item(ptr noundef %17, i32 noundef %18, ptr noundef %19, i32 noundef %21, i32 noundef 1, i32 noundef 0)
  %23 = load ptr, ptr %6, align 8
  %24 = load i32, ptr %23, align 4
  %25 = add i32 %24, 1
  store i32 %25, ptr %23, align 4
  %26 = load ptr, ptr %5, align 8
  %27 = load i32, ptr @hf_zbee_zcl_elec_mes_profile_interval_period, align 4
  %28 = load ptr, ptr %4, align 8
  %29 = load ptr, ptr %6, align 8
  %30 = load i32, ptr %29, align 4
  %31 = call ptr @proto_tree_add_item(ptr noundef %26, i32 noundef %27, ptr noundef %28, i32 noundef %30, i32 noundef 1, i32 noundef 0)
  %32 = load ptr, ptr %6, align 8
  %33 = load i32, ptr %32, align 4
  %34 = add i32 %33, 1
  store i32 %34, ptr %32, align 4
  %35 = load ptr, ptr %5, align 8
  %36 = load i32, ptr @hf_zbee_zcl_elec_mes_number_of_intervals_delivered, align 4
  %37 = load ptr, ptr %4, align 8
  %38 = load ptr, ptr %6, align 8
  %39 = load i32, ptr %38, align 4
  %40 = call ptr @proto_tree_add_item(ptr noundef %35, i32 noundef %36, ptr noundef %37, i32 noundef %39, i32 noundef 1, i32 noundef 0)
  %41 = load ptr, ptr %6, align 8
  %42 = load i32, ptr %41, align 4
  %43 = add i32 %42, 1
  store i32 %43, ptr %41, align 4
  %44 = load ptr, ptr %5, align 8
  %45 = load i32, ptr @hf_zbee_zcl_elec_mes_attr_id, align 4
  %46 = load ptr, ptr %4, align 8
  %47 = load ptr, ptr %6, align 8
  %48 = load i32, ptr %47, align 4
  %49 = call ptr @proto_tree_add_item(ptr noundef %44, i32 noundef %45, ptr noundef %46, i32 noundef %48, i32 noundef 2, i32 noundef -2147483648)
  %50 = load ptr, ptr %6, align 8
  %51 = load i32, ptr %50, align 4
  %52 = add i32 %51, 2
  store i32 %52, ptr %50, align 4
  %53 = load ptr, ptr %4, align 8
  %54 = load ptr, ptr %6, align 8
  %55 = load i32, ptr %54, align 4
  %56 = call i32 @tvb_reported_length_remaining(ptr noundef %53, i32 noundef %55)
  store i32 %56, ptr %7, align 4
  %57 = load ptr, ptr %5, align 8
  %58 = load i32, ptr @hf_zbee_zcl_elec_mes_intervals, align 4
  %59 = load ptr, ptr %4, align 8
  %60 = load ptr, ptr %6, align 8
  %61 = load i32, ptr %60, align 4
  %62 = load i32, ptr %7, align 4
  %63 = call ptr @proto_tree_add_item(ptr noundef %57, i32 noundef %58, ptr noundef %59, i32 noundef %61, i32 noundef %62, i32 noundef 0)
  %64 = load i32, ptr %7, align 4
  %65 = load ptr, ptr %6, align 8
  %66 = load i32, ptr %65, align 4
  %67 = add i32 %66, %64
  store i32 %67, ptr %65, align 4
  call void @llvm.lifetime.end.p0(i64 4, ptr %7) #6
  ret void
}

; Function Attrs: null_pointer_is_valid sspstrong uwtable
define internal void @dissect_zcl_elec_mes_get_profile_info_response(ptr noundef %0, ptr noundef %1, ptr noundef %2) #0 {
  %4 = alloca ptr, align 8
  %5 = alloca ptr, align 8
  %6 = alloca ptr, align 8
  store ptr %0, ptr %4, align 8
  store ptr %1, ptr %5, align 8
  store ptr %2, ptr %6, align 8
  %7 = load ptr, ptr %5, align 8
  %8 = load i32, ptr @hf_zbee_zcl_elec_mes_profile_count, align 4
  %9 = load ptr, ptr %4, align 8
  %10 = load ptr, ptr %6, align 8
  %11 = load i32, ptr %10, align 4
  %12 = call ptr @proto_tree_add_item(ptr noundef %7, i32 noundef %8, ptr noundef %9, i32 noundef %11, i32 noundef 1, i32 noundef 0)
  %13 = load ptr, ptr %6, align 8
  %14 = load i32, ptr %13, align 4
  %15 = add i32 %14, 1
  store i32 %15, ptr %13, align 4
  %16 = load ptr, ptr %5, align 8
  %17 = load i32, ptr @hf_zbee_zcl_elec_mes_profile_interval_period, align 4
  %18 = load ptr, ptr %4, align 8
  %19 = load ptr, ptr %6, align 8
  %20 = load i32, ptr %19, align 4
  %21 = call ptr @proto_tree_add_item(ptr noundef %16, i32 noundef %17, ptr noundef %18, i32 noundef %20, i32 noundef 1, i32 noundef 0)
  %22 = load ptr, ptr %6, align 8
  %23 = load i32, ptr %22, align 4
  %24 = add i32 %23, 1
  store i32 %24, ptr %22, align 4
  %25 = load ptr, ptr %5, align 8
  %26 = load i32, ptr @hf_zbee_zcl_elec_mes_max_number_of_intervals, align 4
  %27 = load ptr, ptr %4, align 8
  %28 = load ptr, ptr %6, align 8
  %29 = load i32, ptr %28, align 4
  %30 = call ptr @proto_tree_add_item(ptr noundef %25, i32 noundef %26, ptr noundef %27, i32 noundef %29, i32 noundef 1, i32 noundef 0)
  %31 = load ptr, ptr %6, align 8
  %32 = load i32, ptr %31, align 4
  %33 = add i32 %32, 1
  store i32 %33, ptr %31, align 4
  br label %34

34:                                               ; preds = %40, %3
  %35 = load ptr, ptr %4, align 8
  %36 = load ptr, ptr %6, align 8
  %37 = load i32, ptr %36, align 4
  %38 = call i32 @tvb_reported_length_remaining(ptr noundef %35, i32 noundef %37)
  %39 = icmp sgt i32 %38, 0
  br i1 %39, label %40, label %50

40:                                               ; preds = %34
  %41 = load ptr, ptr %5, align 8
  %42 = load i32, ptr @hf_zbee_zcl_elec_mes_attr_id, align 4
  %43 = load ptr, ptr %4, align 8
  %44 = load ptr, ptr %6, align 8
  %45 = load i32, ptr %44, align 4
  %46 = call ptr @proto_tree_add_item(ptr noundef %41, i32 noundef %42, ptr noundef %43, i32 noundef %45, i32 noundef 2, i32 noundef -2147483648)
  %47 = load ptr, ptr %6, align 8
  %48 = load i32, ptr %47, align 4
  %49 = add i32 %48, 2
  store i32 %49, ptr %47, align 4
  br label %34, !llvm.loop !8

50:                                               ; preds = %34
  ret void
}

; Function Attrs: null_pointer_is_valid sspstrong uwtable
define internal void @dissect_zcl_elec_mes_get_measurement_profile_info(ptr noundef %0, ptr noundef %1, ptr noundef %2) #0 {
  %4 = alloca ptr, align 8
  %5 = alloca ptr, align 8
  %6 = alloca ptr, align 8
  store ptr %0, ptr %4, align 8
  store ptr %1, ptr %5, align 8
  store ptr %2, ptr %6, align 8
  %7 = load ptr, ptr %5, align 8
  %8 = load i32, ptr @hf_zbee_zcl_elec_mes_attr_id, align 4
  %9 = load ptr, ptr %4, align 8
  %10 = load ptr, ptr %6, align 8
  %11 = load i32, ptr %10, align 4
  %12 = call ptr @proto_tree_add_item(ptr noundef %7, i32 noundef %8, ptr noundef %9, i32 noundef %11, i32 noundef 2, i32 noundef -2147483648)
  %13 = load ptr, ptr %6, align 8
  %14 = load i32, ptr %13, align 4
  %15 = add i32 %14, 2
  store i32 %15, ptr %13, align 4
  %16 = load ptr, ptr %5, align 8
  %17 = load i32, ptr @hf_zbee_zcl_elec_mes_start_time, align 4
  %18 = load ptr, ptr %4, align 8
  %19 = load ptr, ptr %6, align 8
  %20 = load i32, ptr %19, align 4
  %21 = call ptr @proto_tree_add_item(ptr noundef %16, i32 noundef %17, ptr noundef %18, i32 noundef %20, i32 noundef 4, i32 noundef -2147483598)
  %22 = load ptr, ptr %6, align 8
  %23 = load i32, ptr %22, align 4
  %24 = add i32 %23, 4
  store i32 %24, ptr %22, align 4
  %25 = load ptr, ptr %5, align 8
  %26 = load i32, ptr @hf_zbee_zcl_elec_mes_number_of_intervals, align 4
  %27 = load ptr, ptr %4, align 8
  %28 = load ptr, ptr %6, align 8
  %29 = load i32, ptr %28, align 4
  %30 = call ptr @proto_tree_add_item(ptr noundef %25, i32 noundef %26, ptr noundef %27, i32 noundef %29, i32 noundef 1, i32 noundef 0)
  %31 = load ptr, ptr %6, align 8
  %32 = load i32, ptr %31, align 4
  %33 = add i32 %32, 1
  store i32 %33, ptr %31, align 4
  ret void
}

; Function Attrs: null_pointer_is_valid sspstrong uwtable
define internal i32 @dissect_zbee_zcl_elec_mes(ptr noundef %0, ptr noundef %1, ptr noundef %2, ptr noundef %3) #0 {
  %5 = alloca i32, align 4
  %6 = alloca ptr, align 8
  %7 = alloca ptr, align 8
  %8 = alloca ptr, align 8
  %9 = alloca ptr, align 8
  %10 = alloca ptr, align 8
  %11 = alloca ptr, align 8
  %12 = alloca i32, align 4
  %13 = alloca i8, align 1
  %14 = alloca i32, align 4
  %15 = alloca i32, align 4
  store ptr %0, ptr %6, align 8
  store ptr %1, ptr %7, align 8
  store ptr %2, ptr %8, align 8
  store ptr %3, ptr %9, align 8
  call void @llvm.lifetime.start.p0(i64 8, ptr %10) #6
  call void @llvm.lifetime.start.p0(i64 8, ptr %11) #6
  call void @llvm.lifetime.start.p0(i64 4, ptr %12) #6
  store i32 0, ptr %12, align 4
  call void @llvm.lifetime.start.p0(i64 1, ptr %13) #6
  call void @llvm.lifetime.start.p0(i64 4, ptr %14) #6
  %16 = load ptr, ptr %9, align 8
  %17 = icmp eq ptr %16, null
  br i1 %17, label %18, label %19

18:                                               ; preds = %4
  store i32 0, ptr %5, align 4
  store i32 1, ptr %15, align 4
  br label %114

19:                                               ; preds = %4
  %20 = load ptr, ptr %9, align 8
  store ptr %20, ptr %11, align 8
  %21 = load ptr, ptr %11, align 8
  %22 = getelementptr inbounds nuw %struct.zbee_zcl_packet, ptr %21, i32 0, i32 6
  %23 = load i8, ptr %22, align 1
  store i8 %23, ptr %13, align 1
  %24 = load ptr, ptr %11, align 8
  %25 = getelementptr inbounds nuw %struct.zbee_zcl_packet, ptr %24, i32 0, i32 1
  %26 = load i8, ptr %25, align 1, !range !6, !noundef !7
  %27 = trunc i8 %26 to i1
  %28 = zext i1 %27 to i32
  %29 = icmp eq i32 %28, 0
  br i1 %29, label %30, label %69

30:                                               ; preds = %19
  %31 = load ptr, ptr %7, align 8
  %32 = getelementptr inbounds nuw %struct._packet_info, ptr %31, i32 0, i32 1
  %33 = load ptr, ptr %32, align 8
  %34 = load i8, ptr %13, align 1
  %35 = zext i8 %34 to i32
  %36 = call ptr @val_to_str_const(i32 noundef %35, ptr noundef @zbee_zcl_elec_mes_srv_rx_cmd_names, ptr noundef @.str.286)
  %37 = load ptr, ptr %11, align 8
  %38 = getelementptr inbounds nuw %struct.zbee_zcl_packet, ptr %37, i32 0, i32 5
  %39 = load i8, ptr %38, align 2
  %40 = zext i8 %39 to i32
  call void (ptr, i32, ptr, ...) @col_append_fstr(ptr noundef %33, i32 noundef 25, ptr noundef @.str.285, ptr noundef %36, i32 noundef %40)
  %41 = load ptr, ptr %8, align 8
  %42 = load i32, ptr @hf_zbee_zcl_elec_mes_srv_rx_cmd_id, align 4
  %43 = load ptr, ptr %6, align 8
  %44 = load i32, ptr %12, align 4
  %45 = load i8, ptr %13, align 1
  %46 = zext i8 %45 to i32
  %47 = call ptr @proto_tree_add_uint(ptr noundef %41, i32 noundef %42, ptr noundef %43, i32 noundef %44, i32 noundef 1, i32 noundef %46)
  %48 = load ptr, ptr %6, align 8
  %49 = load i32, ptr %12, align 4
  %50 = add i32 %49, 1
  store i32 %50, ptr %12, align 4
  %51 = call i32 @tvb_reported_length_remaining(ptr noundef %48, i32 noundef %50)
  store i32 %51, ptr %14, align 4
  %52 = load i32, ptr %14, align 4
  %53 = icmp sgt i32 %52, 0
  br i1 %53, label %54, label %68

54:                                               ; preds = %30
  %55 = load ptr, ptr %8, align 8
  %56 = load ptr, ptr %6, align 8
  %57 = load i32, ptr %12, align 4
  %58 = load i32, ptr %14, align 4
  %59 = load i32, ptr @ett_zbee_zcl_elec_mes, align 4
  %60 = call ptr @proto_tree_add_subtree(ptr noundef %55, ptr noundef %56, i32 noundef %57, i32 noundef %58, i32 noundef %59, ptr noundef null, ptr noundef @.str.287)
  store ptr %60, ptr %10, align 8
  %61 = load i8, ptr %13, align 1
  %62 = zext i8 %61 to i32
  switch i32 %62, label %66 [
    i32 0, label %67
    i32 1, label %63
  ]

63:                                               ; preds = %54
  %64 = load ptr, ptr %6, align 8
  %65 = load ptr, ptr %10, align 8
  call void @dissect_zcl_elec_mes_get_measurement_profile_info(ptr noundef %64, ptr noundef %65, ptr noundef %12)
  br label %67

66:                                               ; preds = %54
  br label %67

67:                                               ; preds = %66, %63, %54
  br label %68

68:                                               ; preds = %67, %30
  br label %111

69:                                               ; preds = %19
  %70 = load ptr, ptr %7, align 8
  %71 = getelementptr inbounds nuw %struct._packet_info, ptr %70, i32 0, i32 1
  %72 = load ptr, ptr %71, align 8
  %73 = load i8, ptr %13, align 1
  %74 = zext i8 %73 to i32
  %75 = call ptr @val_to_str_const(i32 noundef %74, ptr noundef @zbee_zcl_elec_mes_srv_tx_cmd_names, ptr noundef @.str.286)
  %76 = load ptr, ptr %11, align 8
  %77 = getelementptr inbounds nuw %struct.zbee_zcl_packet, ptr %76, i32 0, i32 5
  %78 = load i8, ptr %77, align 2
  %79 = zext i8 %78 to i32
  call void (ptr, i32, ptr, ...) @col_append_fstr(ptr noundef %72, i32 noundef 25, ptr noundef @.str.285, ptr noundef %75, i32 noundef %79)
  %80 = load ptr, ptr %8, align 8
  %81 = load i32, ptr @hf_zbee_zcl_elec_mes_srv_tx_cmd_id, align 4
  %82 = load ptr, ptr %6, align 8
  %83 = load i32, ptr %12, align 4
  %84 = load i8, ptr %13, align 1
  %85 = zext i8 %84 to i32
  %86 = call ptr @proto_tree_add_uint(ptr noundef %80, i32 noundef %81, ptr noundef %82, i32 noundef %83, i32 noundef 1, i32 noundef %85)
  %87 = load ptr, ptr %6, align 8
  %88 = load i32, ptr %12, align 4
  %89 = add i32 %88, 1
  store i32 %89, ptr %12, align 4
  %90 = call i32 @tvb_reported_length_remaining(ptr noundef %87, i32 noundef %89)
  store i32 %90, ptr %14, align 4
  %91 = load i32, ptr %14, align 4
  %92 = icmp sgt i32 %91, 0
  br i1 %92, label %93, label %110

93:                                               ; preds = %69
  %94 = load ptr, ptr %8, align 8
  %95 = load ptr, ptr %6, align 8
  %96 = load i32, ptr %12, align 4
  %97 = load i32, ptr %14, align 4
  %98 = load i32, ptr @ett_zbee_zcl_elec_mes, align 4
  %99 = call ptr @proto_tree_add_subtree(ptr noundef %94, ptr noundef %95, i32 noundef %96, i32 noundef %97, i32 noundef %98, ptr noundef null, ptr noundef @.str.287)
  store ptr %99, ptr %10, align 8
  %100 = load i8, ptr %13, align 1
  %101 = zext i8 %100 to i32
  switch i32 %101, label %108 [
    i32 0, label %102
    i32 1, label %105
  ]

102:                                              ; preds = %93
  %103 = load ptr, ptr %6, align 8
  %104 = load ptr, ptr %10, align 8
  call void @dissect_zcl_elec_mes_get_profile_info_response(ptr noundef %103, ptr noundef %104, ptr noundef %12)
  br label %109

105:                                              ; preds = %93
  %106 = load ptr, ptr %6, align 8
  %107 = load ptr, ptr %10, align 8
  call void @dissect_zcl_elec_mes_get_measurement_profile_info_response(ptr noundef %106, ptr noundef %107, ptr noundef %12)
  br label %109

108:                                              ; preds = %93
  br label %109

109:                                              ; preds = %108, %105, %102
  br label %110

110:                                              ; preds = %109, %69
  br label %111

111:                                              ; preds = %110, %68
  %112 = load ptr, ptr %6, align 8
  %113 = call i32 @tvb_captured_length(ptr noundef %112)
  store i32 %113, ptr %5, align 4
  store i32 1, ptr %15, align 4
  br label %114

114:                                              ; preds = %111, %18
  call void @llvm.lifetime.end.p0(i64 4, ptr %14) #6
  call void @llvm.lifetime.end.p0(i64 1, ptr %13) #6
  call void @llvm.lifetime.end.p0(i64 4, ptr %12) #6
  call void @llvm.lifetime.end.p0(i64 8, ptr %11) #6
  call void @llvm.lifetime.end.p0(i64 8, ptr %10) #6
  %115 = load i32, ptr %5, align 4
  ret i32 %115
}