; Function Attrs: null_pointer_is_valid sspstrong uwtable
define internal i32 @dissect_zbee_zcl_elec_mes(ptr noundef %0, ptr noundef readonly captures(none) %1, ptr noundef %2, ptr noundef readonly captures(address_is_null) %3) #0 {
  %5 = icmp eq ptr %3, null
  br i1 %5, label %74, label %6

6:                                                ; preds = %4
  %7 = getelementptr inbounds nuw i8, ptr %3, i64 7
  %8 = load i8, ptr %7, align 1
  %9 = getelementptr inbounds nuw i8, ptr %3, i64 1
  %10 = load i8, ptr %9, align 1, !range !6, !noundef !7
  %11 = icmp eq i8 %10, 0
  %12 = getelementptr inbounds nuw i8, ptr %1, i64 8
  %13 = load ptr, ptr %12, align 8
  %14 = zext i8 %8 to i32
  %15 = getelementptr inbounds nuw i8, ptr %3, i64 6
  br i1 %11, label %16, label %34

16:                                               ; preds = %6
  %17 = tail call ptr @val_to_str_const(i32 noundef %14, ptr noundef nonnull @zbee_zcl_elec_mes_srv_rx_cmd_names, ptr noundef nonnull @.str.286)
  %18 = load i8, ptr %15, align 2
  %19 = zext i8 %18 to i32
  tail call void (ptr, i32, ptr, ...) @col_append_fstr(ptr noundef %13, i32 noundef 25, ptr noundef nonnull @.str.285, ptr noundef %17, i32 noundef %19)
  %20 = load i32, ptr @hf_zbee_zcl_elec_mes_srv_rx_cmd_id, align 4
  %21 = tail call ptr @proto_tree_add_uint(ptr noundef %2, i32 noundef %20, ptr noundef %0, i32 noundef 0, i32 noundef 1, i32 noundef %14)
  %22 = tail call i32 @tvb_reported_length_remaining(ptr noundef %0, i32 noundef 1)
  %23 = icmp sgt i32 %22, 0
  br i1 %23, label %24, label %dissect_zcl_elec_mes_get_profile_info_response.exit

24:                                               ; preds = %16
  %25 = load i32, ptr @ett_zbee_zcl_elec_mes, align 4
  %26 = tail call ptr @proto_tree_add_subtree(ptr noundef %2, ptr noundef %0, i32 noundef 1, i32 noundef %22, i32 noundef %25, ptr noundef null, ptr noundef nonnull @.str.287)
  %cond = icmp eq i8 %8, 1
  br i1 %cond, label %27, label %dissect_zcl_elec_mes_get_profile_info_response.exit

27:                                               ; preds = %24
  %28 = load i32, ptr @hf_zbee_zcl_elec_mes_attr_id, align 4
  %29 = tail call ptr @proto_tree_add_item(ptr noundef %26, i32 noundef %28, ptr noundef %0, i32 noundef 1, i32 noundef 2, i32 noundef -2147483648)
  %30 = load i32, ptr @hf_zbee_zcl_elec_mes_start_time, align 4
  %31 = tail call ptr @proto_tree_add_item(ptr noundef %26, i32 noundef %30, ptr noundef %0, i32 noundef 3, i32 noundef 4, i32 noundef -2147483598)
  %32 = load i32, ptr @hf_zbee_zcl_elec_mes_number_of_intervals, align 4
  %33 = tail call ptr @proto_tree_add_item(ptr noundef %26, i32 noundef %32, ptr noundef %0, i32 noundef 7, i32 noundef 1, i32 noundef 0)
  br label %dissect_zcl_elec_mes_get_profile_info_response.exit

34:                                               ; preds = %6
  %35 = tail call ptr @val_to_str_const(i32 noundef %14, ptr noundef nonnull @zbee_zcl_elec_mes_srv_tx_cmd_names, ptr noundef nonnull @.str.286)
  %36 = load i8, ptr %15, align 2
  %37 = zext i8 %36 to i32
  tail call void (ptr, i32, ptr, ...) @col_append_fstr(ptr noundef %13, i32 noundef 25, ptr noundef nonnull @.str.285, ptr noundef %35, i32 noundef %37)
  %38 = load i32, ptr @hf_zbee_zcl_elec_mes_srv_tx_cmd_id, align 4
  %39 = tail call ptr @proto_tree_add_uint(ptr noundef %2, i32 noundef %38, ptr noundef %0, i32 noundef 0, i32 noundef 1, i32 noundef %14)
  %40 = tail call i32 @tvb_reported_length_remaining(ptr noundef %0, i32 noundef 1)
  %41 = icmp sgt i32 %40, 0
  br i1 %41, label %42, label %dissect_zcl_elec_mes_get_profile_info_response.exit

42:                                               ; preds = %34
  %43 = load i32, ptr @ett_zbee_zcl_elec_mes, align 4
  %44 = tail call ptr @proto_tree_add_subtree(ptr noundef %2, ptr noundef %0, i32 noundef 1, i32 noundef %40, i32 noundef %43, ptr noundef null, ptr noundef nonnull @.str.287)
  switch i8 %8, label %dissect_zcl_elec_mes_get_profile_info_response.exit [
    i8 0, label %45
    i8 1, label %59
  ]

45:                                               ; preds = %42
  %46 = load i32, ptr @hf_zbee_zcl_elec_mes_profile_count, align 4
  %47 = tail call ptr @proto_tree_add_item(ptr noundef %44, i32 noundef %46, ptr noundef %0, i32 noundef 1, i32 noundef 1, i32 noundef 0)
  %48 = load i32, ptr @hf_zbee_zcl_elec_mes_profile_interval_period, align 4
  %49 = tail call ptr @proto_tree_add_item(ptr noundef %44, i32 noundef %48, ptr noundef %0, i32 noundef 2, i32 noundef 1, i32 noundef 0)
  %50 = load i32, ptr @hf_zbee_zcl_elec_mes_max_number_of_intervals, align 4
  %51 = tail call ptr @proto_tree_add_item(ptr noundef %44, i32 noundef %50, ptr noundef %0, i32 noundef 3, i32 noundef 1, i32 noundef 0)
  %52 = tail call i32 @tvb_reported_length_remaining(ptr noundef %0, i32 noundef 4)
  %53 = icmp sgt i32 %52, 0
  br i1 %53, label %.lr.ph.i, label %dissect_zcl_elec_mes_get_profile_info_response.exit

.lr.ph.i:                                         ; preds = %45, %.lr.ph.i
  %.061 = phi i32 [ %56, %.lr.ph.i ], [ 4, %45 ]
  %54 = load i32, ptr @hf_zbee_zcl_elec_mes_attr_id, align 4
  %55 = tail call ptr @proto_tree_add_item(ptr noundef %44, i32 noundef %54, ptr noundef %0, i32 noundef %.061, i32 noundef 2, i32 noundef -2147483648)
  %56 = add i32 %.061, 2
  %57 = tail call i32 @tvb_reported_length_remaining(ptr noundef %0, i32 noundef %56)
  %58 = icmp sgt i32 %57, 0
  br i1 %58, label %.lr.ph.i, label %dissect_zcl_elec_mes_get_profile_info_response.exit, !llvm.loop !8

59:                                               ; preds = %42
  %60 = load i32, ptr @hf_zbee_zcl_elec_mes_start_time, align 4
  %61 = tail call ptr @proto_tree_add_item(ptr noundef %44, i32 noundef %60, ptr noundef %0, i32 noundef 1, i32 noundef 4, i32 noundef -2147483598)
  %62 = load i32, ptr @hf_zbee_zcl_elec_mes_status, align 4
  %63 = tail call ptr @proto_tree_add_item(ptr noundef %44, i32 noundef %62, ptr noundef %0, i32 noundef 5, i32 noundef 1, i32 noundef 0)
  %64 = load i32, ptr @hf_zbee_zcl_elec_mes_profile_interval_period, align 4
  %65 = tail call ptr @proto_tree_add_item(ptr noundef %44, i32 noundef %64, ptr noundef %0, i32 noundef 6, i32 noundef 1, i32 noundef 0)
  %66 = load i32, ptr @hf_zbee_zcl_elec_mes_number_of_intervals_delivered, align 4
  %67 = tail call ptr @proto_tree_add_item(ptr noundef %44, i32 noundef %66, ptr noundef %0, i32 noundef 7, i32 noundef 1, i32 noundef 0)
  %68 = load i32, ptr @hf_zbee_zcl_elec_mes_attr_id, align 4
  %69 = tail call ptr @proto_tree_add_item(ptr noundef %44, i32 noundef %68, ptr noundef %0, i32 noundef 8, i32 noundef 2, i32 noundef -2147483648)
  %70 = tail call i32 @tvb_reported_length_remaining(ptr noundef %0, i32 noundef 10)
  %71 = load i32, ptr @hf_zbee_zcl_elec_mes_intervals, align 4
  %72 = tail call ptr @proto_tree_add_item(ptr noundef %44, i32 noundef %71, ptr noundef %0, i32 noundef 10, i32 noundef %70, i32 noundef 0)
  br label %dissect_zcl_elec_mes_get_profile_info_response.exit

dissect_zcl_elec_mes_get_profile_info_response.exit: ; preds = %.lr.ph.i, %45, %24, %34, %42, %59, %16, %27
  %73 = tail call i32 @tvb_captured_length(ptr noundef %0)
  br label %74

74:                                               ; preds = %4, %dissect_zcl_elec_mes_get_profile_info_response.exit
  %.0 = phi i32 [ %73, %dissect_zcl_elec_mes_get_profile_info_response.exit ], [ 0, %4 ]
  ret i32 %.0
}